target datalayout = "e-m:e-p270:32:32-p271:32:32-p272:64:64-i64:64-i128:128-f80:128-n8:16:32:64-S128"
target triple = "x86_64-pc-linux-gnu"

%struct.cbuf = type { %union.pthread_mutex_t, i32, i32, i32, i32, i32, i32, i32, i32, i32, i32, ptr }
%union.pthread_mutex_t = type { %struct.__pthread_mutex_s }
%struct.__pthread_mutex_s = type { i32, i32, i32, i32, i32, i16, i16, %struct.__pthread_internal_list }
%struct.__pthread_internal_list = type { ptr, ptr }

@.str.2 = private unnamed_addr constant [29 x i8] c"%s: pthread_mutex_lock(): %m\00", align 1
@.str.3 = private unnamed_addr constant [31 x i8] c"%s: pthread_mutex_unlock(): %m\00", align 1
@__func__.cbuf_copy = private unnamed_addr constant [10 x i8] c"cbuf_copy\00", align 1

; Function Attrs: nounwind uwtable
define dso_local i32 @cbuf_copy(ptr noundef %0, ptr noundef %1, i32 noundef %2, ptr noundef %3) #0 {
  %5 = alloca i32, align 4
  %6 = alloca ptr, align 8
  %7 = alloca ptr, align 8
  %8 = alloca i32, align 4
  %9 = alloca ptr, align 8
  %10 = alloca i32, align 4
  %11 = alloca i32, align 4
  %12 = alloca i32, align 4
  %13 = alloca i32, align 4
  %14 = alloca i32, align 4
  %15 = alloca i32, align 4
  %16 = alloca i32, align 4
  %17 = alloca i32, align 4
  store ptr %0, ptr %6, align 8
  store ptr %1, ptr %7, align 8
  store i32 %2, ptr %8, align 4
  store ptr %3, ptr %9, align 8
  call void @llvm.lifetime.start.p0(i64 4, ptr %10) #8
  store i32 0, ptr %10, align 4
  %18 = load ptr, ptr %9, align 8
  %19 = icmp ne ptr %18, null
  br i1 %19, label %20, label %22

20:                                               ; preds = %4
  %21 = load ptr, ptr %9, align 8
  store i32 0, ptr %21, align 4
  br label %22

22:                                               ; preds = %20, %4
  %23 = load ptr, ptr %6, align 8
  %24 = load ptr, ptr %7, align 8
  %25 = icmp eq ptr %23, %24
  br i1 %25, label %26, label %28

26:                                               ; preds = %22
  %27 = call ptr @__errno_location() #9
  store i32 22, ptr %27, align 4
  store i32 -1, ptr %5, align 4
  store i32 1, ptr %11, align 4
  br label %133

28:                                               ; preds = %22
  %29 = load i32, ptr %8, align 4
  %30 = icmp slt i32 %29, -1
  br i1 %30, label %31, label %33

31:                                               ; preds = %28
  %32 = call ptr @__errno_location() #9
  store i32 22, ptr %32, align 4
  store i32 -1, ptr %5, align 4
  store i32 1, ptr %11, align 4
  br label %133

33:                                               ; preds = %28
  %34 = load i32, ptr %8, align 4
  %35 = icmp eq i32 %34, 0
  br i1 %35, label %36, label %37

36:                                               ; preds = %33
  store i32 0, ptr %5, align 4
  store i32 1, ptr %11, align 4
  br label %133

37:                                               ; preds = %33
  %38 = load ptr, ptr %6, align 8
  %39 = load ptr, ptr %7, align 8
  %40 = icmp ult ptr %38, %39
  br i1 %40, label %41, label %66

41:                                               ; preds = %37
  br label %42

42:                                               ; preds = %41
  call void @llvm.lifetime.start.p0(i64 4, ptr %12) #8
  %43 = load ptr, ptr %6, align 8
  %44 = getelementptr inbounds nuw %struct.cbuf, ptr %43, i32 0, i32 0
  %45 = call i32 @pthread_mutex_lock(ptr noundef %44) #8
  store i32 %45, ptr %12, align 4
  %46 = load i32, ptr %12, align 4
  %47 = icmp ne i32 %46, 0
  br i1 %47, label %48, label %51

48:                                               ; preds = %42
  %49 = load i32, ptr %12, align 4
  %50 = call ptr @__errno_location() #9
  store i32 %49, ptr %50, align 4
  call void (ptr, ...) @fatal_abort(ptr noundef @.str.2, ptr noundef @__func__.cbuf_copy) #10
  unreachable

51:                                               ; preds = %42
  call void @llvm.lifetime.end.p0(i64 4, ptr %12) #8
  br label %52

52:                                               ; preds = %51
  br label %53

53:                                               ; preds = %52
  br label %54

54:                                               ; preds = %53
  call void @llvm.lifetime.start.p0(i64 4, ptr %13) #8
  %55 = load ptr, ptr %7, align 8
  %56 = getelementptr inbounds nuw %struct.cbuf, ptr %55, i32 0, i32 0
  %57 = call i32 @pthread_mutex_lock(ptr noundef %56) #8
  store i32 %57, ptr %13, align 4
  %58 = load i32, ptr %13, align 4
  %59 = icmp ne i32 %58, 0
  br i1 %59, label %60, label %63

60:                                               ; preds = %54
  %61 = load i32, ptr %13, align 4
  %62 = call ptr @__errno_location() #9
  store i32 %61, ptr %62, align 4
  call void (ptr, ...) @fatal_abort(ptr noundef @.str.2, ptr noundef @__func__.cbuf_copy) #10
  unreachable

63:                                               ; preds = %54
  call void @llvm.lifetime.end.p0(i64 4, ptr %13) #8
  br label %64

64:                                               ; preds = %63
  br label %65

65:                                               ; preds = %64
  br label %91

66:                                               ; preds = %37
  br label %67

67:                                               ; preds = %66
  call void @llvm.lifetime.start.p0(i64 4, ptr %14) #8
  %68 = load ptr, ptr %7, align 8
  %69 = getelementptr inbounds nuw %struct.cbuf, ptr %68, i32 0, i32 0
  %70 = call i32 @pthread_mutex_lock(ptr noundef %69) #8
  store i32 %70, ptr %14, align 4
  %71 = load i32, ptr %14, align 4
  %72 = icmp ne i32 %71, 0
  br i1 %72, label %73, label %76

73:                                               ; preds = %67
  %74 = load i32, ptr %14, align 4
  %75 = call ptr @__errno_location() #9
  store i32 %74, ptr %75, align 4
  call void (ptr, ...) @fatal_abort(ptr noundef @.str.2, ptr noundef @__func__.cbuf_copy) #10
  unreachable

76:                                               ; preds = %67
  call void @llvm.lifetime.end.p0(i64 4, ptr %14) #8
  br label %77

77:                                               ; preds = %76
  br label %78

78:                                               ; preds = %77
  br label %79

79:                                               ; preds = %78
  call void @llvm.lifetime.start.p0(i64 4, ptr %15) #8
  %80 = load ptr, ptr %6, align 8
  %81 = getelementptr inbounds nuw %struct.cbuf, ptr %80, i32 0, i32 0
  %82 = call i32 @pthread_mutex_lock(ptr noundef %81) #8
  store i32 %82, ptr %15, align 4
  %83 = load i32, ptr %15, align 4
  %84 = icmp ne i32 %83, 0
  br i1 %84, label %85, label %88

85:                                               ; preds = %79
  %86 = load i32, ptr %15, align 4
  %87 = call ptr @__errno_location() #9
  store i32 %86, ptr %87, align 4
  call void (ptr, ...) @fatal_abort(ptr noundef @.str.2, ptr noundef @__func__.cbuf_copy) #10
  unreachable

88:                                               ; preds = %79
  call void @llvm.lifetime.end.p0(i64 4, ptr %15) #8
  br label %89

89:                                               ; preds = %88
  br label %90

90:                                               ; preds = %89
  br label %91

91:                                               ; preds = %90, %65
  %92 = load i32, ptr %8, align 4
  %93 = icmp eq i32 %92, -1
  br i1 %93, label %94, label %98

94:                                               ; preds = %91
  %95 = load ptr, ptr %6, align 8
  %96 = getelementptr inbounds nuw %struct.cbuf, ptr %95, i32 0, i32 5
  %97 = load i32, ptr %96, align 8
  store i32 %97, ptr %8, align 4
  br label %98

98:                                               ; preds = %94, %91
  %99 = load i32, ptr %8, align 4
  %100 = icmp sgt i32 %99, 0
  br i1 %100, label %101, label %107

101:                                              ; preds = %98
  %102 = load ptr, ptr %6, align 8
  %103 = load ptr, ptr %7, align 8
  %104 = load i32, ptr %8, align 4
  %105 = load ptr, ptr %9, align 8
  %106 = call i32 @cbuf_copier(ptr noundef %102, ptr noundef %103, i32 noundef %104, ptr noundef %105)
  store i32 %106, ptr %10, align 4
  br label %107

107:                                              ; preds = %101, %98
  br label %108

108:                                              ; preds = %107
  call void @llvm.lifetime.start.p0(i64 4, ptr %16) #8
  %109 = load ptr, ptr %6, align 8
  %110 = getelementptr inbounds nuw %struct.cbuf, ptr %109, i32 0, i32 0
  %111 = call i32 @pthread_mutex_unlock(ptr noundef %110) #8
  store i32 %111, ptr %16, align 4
  %112 = load i32, ptr %16, align 4
  %113 = icmp ne i32 %112, 0
  br i1 %113, label %114, label %117

114:                                              ; preds = %108
  %115 = load i32, ptr %16, align 4
  %116 = call ptr @__errno_location() #9
  store i32 %115, ptr %116, align 4
  call void (ptr, ...) @fatal_abort(ptr noundef @.str.3, ptr noundef @__func__.cbuf_copy) #10
  unreachable

117:                                              ; preds = %108
  call void @llvm.lifetime.end.p0(i64 4, ptr %16) #8
  br label %118

118:                                              ; preds = %117
  br label %119

119:                                              ; preds = %118
  br label %120

120:                                              ; preds = %119
  call void @llvm.lifetime.start.p0(i64 4, ptr %17) #8
  %121 = load ptr, ptr %7, align 8
  %122 = getelementptr inbounds nuw %struct.cbuf, ptr %121, i32 0, i32 0
  %123 = call i32 @pthread_mutex_unlock(ptr noundef %122) #8
  store i32 %123, ptr %17, align 4
  %124 = load i32, ptr %17, align 4
  %125 = icmp ne i32 %124, 0
  br i1 %125, label %126, label %129

126:                                              ; preds = %120
  %127 = load i32, ptr %17, align 4
  %128 = call ptr @__errno_location() #9
  store i32 %127, ptr %128, align 4
  call void (ptr, ...) @fatal_abort(ptr noundef @.str.3, ptr noundef @__func__.cbuf_copy) #10
  unreachable

129:                                              ; preds = %120
  call void @llvm.lifetime.end.p0(i64 4, ptr %17) #8
  br label %130

130:                                              ; preds = %129
  br label %131

131:                                              ; preds = %130
  %132 = load i32, ptr %10, align 4
  store i32 %132, ptr %5, align 4
  store i32 1, ptr %11, align 4
  br label %133

133:                                              ; preds = %131, %36, %31, %26
  call void @llvm.lifetime.end.p0(i64 4, ptr %10) #8
  %134 = load i32, ptr %5, align 4
  ret i32 %134
}